target datalayout = "e-m:e-p270:32:32-p271:32:32-p272:64:64-i64:64-i128:128-f80:128-n8:16:32:64-S128"
target triple = "x86_64-unknown-linux-gnu"

%struct.MACAddr = type { [6 x i8] }
%struct.of_dpa = type { ptr, ptr, ptr, i32, i32 }
%struct.of_dpa_flow_action = type { i32, %struct.anon.11, %struct.anon.12 }
%struct.anon.11 = type { i32, i32, i16 }
%struct.anon.12 = type { i16, i32, i8, i16 }
%struct.of_dpa_group = type { i32, %union.anon.14 }
%union.anon.14 = type { %struct.anon.17, [8 x i8] }
%struct.anon.17 = type { i16, ptr }
%struct.anon.16 = type { i32, %struct.MACAddr, %struct.MACAddr, i16 }
%struct.of_dpa_flow_context = type { i32, i32, ptr, i32, %struct.eth_header, %struct.vlan_header, %struct.vlan_header, ptr, %struct.of_dpa_flow_pkt_fields, %struct.of_dpa_flow_action }
%struct.eth_header = type { [6 x i8], [6 x i8], i16 }
%struct.vlan_header = type { i16, i16 }
%struct.of_dpa_flow_pkt_fields = type { i32, ptr, ptr, ptr, ptr, ptr, ptr, ptr }
%struct.iovec = type { ptr, i64 }

@zero_mac = internal constant %struct.MACAddr zeroinitializer, align 1

; Function Attrs: nounwind sspstrong uwtable
define internal void @of_dpa_flow_pkt_hdr_rewrite(ptr noundef %fc, ptr noundef %src_mac, ptr noundef %dst_mac, i16 noundef zeroext %vlan_id) #0 {
entry:
  %fc.addr = alloca ptr, align 8
  %src_mac.addr = alloca ptr, align 8
  %dst_mac.addr = alloca ptr, align 8
  %vlan_id.addr = alloca i16, align 2
  %fields = alloca ptr, align 8
  store ptr %fc, ptr %fc.addr, align 8
  store ptr %src_mac, ptr %src_mac.addr, align 8
  store ptr %dst_mac, ptr %dst_mac.addr, align 8
  store i16 %vlan_id, ptr %vlan_id.addr, align 2
  %0 = load ptr, ptr %fc.addr, align 8
  %fields1 = getelementptr inbounds %struct.of_dpa_flow_context, ptr %0, i32 0, i32 8
  store ptr %fields1, ptr %fields, align 8
  %1 = load ptr, ptr %src_mac.addr, align 8
  %tobool = icmp ne ptr %1, null
  br i1 %tobool, label %if.then, label %lor.lhs.false

lor.lhs.false:                                    ; preds = %entry
  %2 = load ptr, ptr %dst_mac.addr, align 8
  %tobool2 = icmp ne ptr %2, null
  br i1 %tobool2, label %if.then, label %if.end16

if.then:                                          ; preds = %lor.lhs.false, %entry
  %3 = load ptr, ptr %fc.addr, align 8
  %ethhdr_rewrite = getelementptr inbounds %struct.of_dpa_flow_context, ptr %3, i32 0, i32 4
  %4 = load ptr, ptr %fields, align 8
  %ethhdr = getelementptr inbounds %struct.of_dpa_flow_pkt_fields, ptr %4, i32 0, i32 1
  %5 = load ptr, ptr %ethhdr, align 8
  call void @llvm.memcpy.p0.p0.i64(ptr align 4 %ethhdr_rewrite, ptr align 2 %5, i64 14, i1 false)
  %6 = load ptr, ptr %src_mac.addr, align 8
  %tobool3 = icmp ne ptr %6, null
  br i1 %tobool3, label %land.lhs.true, label %if.end

land.lhs.true:                                    ; preds = %if.then
  %7 = load ptr, ptr %src_mac.addr, align 8
  %call = call i32 @memcmp(ptr noundef %7, ptr noundef @zero_mac, i64 noundef 6) #12
  %tobool4 = icmp ne i32 %call, 0
  br i1 %tobool4, label %if.then5, label %if.end

if.then5:                                         ; preds = %land.lhs.true
  %8 = load ptr, ptr %fc.addr, align 8
  %ethhdr_rewrite6 = getelementptr inbounds %struct.of_dpa_flow_context, ptr %8, i32 0, i32 4
  %h_source = getelementptr inbounds %struct.eth_header, ptr %ethhdr_rewrite6, i32 0, i32 1
  %arraydecay = getelementptr inbounds [6 x i8], ptr %h_source, i64 0, i64 0
  %9 = load ptr, ptr %src_mac.addr, align 8
  call void @llvm.memcpy.p0.p0.i64(ptr align 2 %arraydecay, ptr align 1 %9, i64 6, i1 false)
  br label %if.end

if.end:                                           ; preds = %if.then5, %land.lhs.true, %if.then
  %10 = load ptr, ptr %dst_mac.addr, align 8
  %tobool7 = icmp ne ptr %10, null
  br i1 %tobool7, label %land.lhs.true8, label %if.end14

land.lhs.true8:                                   ; preds = %if.end
  %11 = load ptr, ptr %dst_mac.addr, align 8
  %call9 = call i32 @memcmp(ptr noundef %11, ptr noundef @zero_mac, i64 noundef 6) #12
  %tobool10 = icmp ne i32 %call9, 0
  br i1 %tobool10, label %if.then11, label %if.end14

if.then11:                                        ; preds = %land.lhs.true8
  %12 = load ptr, ptr %fc.addr, align 8
  %ethhdr_rewrite12 = getelementptr inbounds %struct.of_dpa_flow_context, ptr %12, i32 0, i32 4
  %h_dest = getelementptr inbounds %struct.eth_header, ptr %ethhdr_rewrite12, i32 0, i32 0
  %arraydecay13 = getelementptr inbounds [6 x i8], ptr %h_dest, i64 0, i64 0
  %13 = load ptr, ptr %dst_mac.addr, align 8
  call void @llvm.memcpy.p0.p0.i64(ptr align 4 %arraydecay13, ptr align 1 %13, i64 6, i1 false)
  br label %if.end14

if.end14:                                         ; preds = %if.then11, %land.lhs.true8, %if.end
  %14 = load ptr, ptr %fc.addr, align 8
  %ethhdr_rewrite15 = getelementptr inbounds %struct.of_dpa_flow_context, ptr %14, i32 0, i32 4
  %15 = load ptr, ptr %fc.addr, align 8
  %iov = getelementptr inbounds %struct.of_dpa_flow_context, ptr %15, i32 0, i32 2
  %16 = load ptr, ptr %iov, align 8
  %arrayidx = getelementptr %struct.iovec, ptr %16, i64 0
  %iov_base = getelementptr inbounds %struct.iovec, ptr %arrayidx, i32 0, i32 0
  store ptr %ethhdr_rewrite15, ptr %iov_base, align 8
  br label %if.end16

if.end16:                                         ; preds = %if.end14, %lor.lhs.false
  %17 = load i16, ptr %vlan_id.addr, align 2
  %conv = zext i16 %17 to i32
  %tobool17 = icmp ne i32 %conv, 0
  br i1 %tobool17, label %land.lhs.true18, label %if.end27

land.lhs.true18:                                  ; preds = %if.end16
  %18 = load ptr, ptr %fields, align 8
  %vlanhdr = getelementptr inbounds %struct.of_dpa_flow_pkt_fields, ptr %18, i32 0, i32 3
  %19 = load ptr, ptr %vlanhdr, align 8
  %tobool19 = icmp ne ptr %19, null
  br i1 %tobool19, label %if.then20, label %if.end27

if.then20:                                        ; preds = %land.lhs.true18
  %20 = load ptr, ptr %fc.addr, align 8
  %vlanhdr_rewrite = getelementptr inbounds %struct.of_dpa_flow_context, ptr %20, i32 0, i32 5
  %21 = load ptr, ptr %fc.addr, align 8
  %vlanhdr21 = getelementptr inbounds %struct.of_dpa_flow_context, ptr %21, i32 0, i32 6
  call void @llvm.memcpy.p0.p0.i64(ptr align 2 %vlanhdr_rewrite, ptr align 2 %vlanhdr21, i64 4, i1 false)
  %22 = load i16, ptr %vlan_id.addr, align 2
  %23 = load ptr, ptr %fc.addr, align 8
  %vlanhdr_rewrite22 = getelementptr inbounds %struct.of_dpa_flow_context, ptr %23, i32 0, i32 5
  %h_tci = getelementptr inbounds %struct.vlan_header, ptr %vlanhdr_rewrite22, i32 0, i32 0
  store i16 %22, ptr %h_tci, align 2
  %24 = load ptr, ptr %fc.addr, align 8
  %vlanhdr_rewrite23 = getelementptr inbounds %struct.of_dpa_flow_context, ptr %24, i32 0, i32 5
  %25 = load ptr, ptr %fc.addr, align 8
  %iov24 = getelementptr inbounds %struct.of_dpa_flow_context, ptr %25, i32 0, i32 2
  %26 = load ptr, ptr %iov24, align 8
  %arrayidx25 = getelementptr %struct.iovec, ptr %26, i64 1
  %iov_base26 = getelementptr inbounds %struct.iovec, ptr %arrayidx25, i32 0, i32 0
  store ptr %vlanhdr_rewrite23, ptr %iov_base26, align 8
  br label %if.end27

if.end27:                                         ; preds = %if.then20, %land.lhs.true18, %if.end16
  ret void
}

; Function Attrs: nounwind sspstrong uwtable
define internal ptr @of_dpa_group_find(ptr noundef %of_dpa, i32 noundef %group_id) #0 {
entry:
  %of_dpa.addr = alloca ptr, align 8
  %group_id.addr = alloca i32, align 4
  store ptr %of_dpa, ptr %of_dpa.addr, align 8
  store i32 %group_id, ptr %group_id.addr, align 4
  %0 = load ptr, ptr %of_dpa.addr, align 8
  %group_tbl = getelementptr inbounds %struct.of_dpa, ptr %0, i32 0, i32 2
  %1 = load ptr, ptr %group_tbl, align 8
  %call = call ptr @g_hash_table_lookup(ptr noundef %1, ptr noundef %group_id.addr)
  ret ptr %call
}

; Function Attrs: nounwind sspstrong uwtable
define internal void @of_dpa_output_l2_rewrite(ptr noundef %fc, ptr noundef %group) #0 {
entry:
  %fc.addr = alloca ptr, align 8
  %group.addr = alloca ptr, align 8
  %l2_group = alloca ptr, align 8
  store ptr %fc, ptr %fc.addr, align 8
  store ptr %group, ptr %group.addr, align 8
  %0 = load ptr, ptr %fc.addr, align 8
  %of_dpa = getelementptr inbounds %struct.of_dpa_flow_context, ptr %0, i32 0, i32 7
  %1 = load ptr, ptr %of_dpa, align 8
  %2 = load ptr, ptr %group.addr, align 8
  %3 = getelementptr inbounds %struct.of_dpa_group, ptr %2, i32 0, i32 1
  %group_id = getelementptr inbounds %struct.anon.16, ptr %3, i32 0, i32 0
  %4 = load i32, ptr %group_id, align 8
  %call = call ptr @of_dpa_group_find(ptr noundef %1, i32 noundef %4)
  store ptr %call, ptr %l2_group, align 8
  %5 = load ptr, ptr %l2_group, align 8
  %tobool = icmp ne ptr %5, null
  br i1 %tobool, label %if.end, label %if.then

if.then:                                          ; preds = %entry
  br label %return

if.end:                                           ; preds = %entry
  %6 = load ptr, ptr %fc.addr, align 8
  %7 = load ptr, ptr %group.addr, align 8
  %8 = getelementptr inbounds %struct.of_dpa_group, ptr %7, i32 0, i32 1
  %src_mac = getelementptr inbounds %struct.anon.16, ptr %8, i32 0, i32 1
  %a = getelementptr inbounds %struct.MACAddr, ptr %src_mac, i32 0, i32 0
  %arraydecay = getelementptr inbounds [6 x i8], ptr %a, i64 0, i64 0
  %9 = load ptr, ptr %group.addr, align 8
  %10 = getelementptr inbounds %struct.of_dpa_group, ptr %9, i32 0, i32 1
  %dst_mac = getelementptr inbounds %struct.anon.16, ptr %10, i32 0, i32 2
  %a1 = getelementptr inbounds %struct.MACAddr, ptr %dst_mac, i32 0, i32 0
  %arraydecay2 = getelementptr inbounds [6 x i8], ptr %a1, i64 0, i64 0
  %11 = load ptr, ptr %group.addr, align 8
  %12 = getelementptr inbounds %struct.of_dpa_group, ptr %11, i32 0, i32 1
  %vlan_id = getelementptr inbounds %struct.anon.16, ptr %12, i32 0, i32 3
  %13 = load i16, ptr %vlan_id, align 8
  call void @of_dpa_flow_pkt_hdr_rewrite(ptr noundef %6, ptr noundef %arraydecay, ptr noundef %arraydecay2, i16 noundef zeroext %13)
  %14 = load ptr, ptr %fc.addr, align 8
  %15 = load ptr, ptr %l2_group, align 8
  call void @of_dpa_output_l2_interface(ptr noundef %14, ptr noundef %15)
  br label %return

return:                                           ; preds = %if.end, %if.then
  ret void
}