; Function Attrs: nounwind sspstrong uwtable
define internal fastcc void @of_dpa_output_l2_rewrite(ptr noundef %fc, ptr noundef nonnull readonly captures(none) %group) unnamed_addr #0 {
entry:
  %group_id.addr.i = alloca i32, align 4
  %of_dpa = getelementptr inbounds nuw i8, ptr %fc, i64 48
  %0 = load ptr, ptr %of_dpa, align 8
  %1 = getelementptr inbounds nuw i8, ptr %group, i64 8
  %2 = load i32, ptr %1, align 8
  %3 = getelementptr i8, ptr %0, i64 16
  %.val = load ptr, ptr %3, align 8
  call void @llvm.lifetime.start.p0(i64 4, ptr nonnull %group_id.addr.i)
  store i32 %2, ptr %group_id.addr.i, align 4
  %call.i = call ptr @g_hash_table_lookup(ptr noundef %.val, ptr noundef nonnull %group_id.addr.i) #18
  call void @llvm.lifetime.end.p0(i64 4, ptr nonnull %group_id.addr.i)
  %tobool.not = icmp eq ptr %call.i, null
  br i1 %tobool.not, label %return, label %if.end

if.end:                                           ; preds = %entry
  %src_mac = getelementptr inbounds nuw i8, ptr %group, i64 12
  %dst_mac = getelementptr inbounds nuw i8, ptr %group, i64 18
  %vlan_id = getelementptr inbounds nuw i8, ptr %group, i64 24
  %4 = load i16, ptr %vlan_id, align 8
  %ethhdr_rewrite.i = getelementptr inbounds nuw i8, ptr %fc, i64 20
  %ethhdr.i = getelementptr inbounds nuw i8, ptr %fc, i64 64
  %5 = load ptr, ptr %ethhdr.i, align 8
  call void @llvm.memcpy.p0.p0.i64(ptr noundef nonnull align 4 dereferenceable(14) %ethhdr_rewrite.i, ptr noundef nonnull align 2 dereferenceable(14) %5, i64 14, i1 false)
  %bcmp.i = call i32 @bcmp(ptr noundef nonnull readonly dereferenceable(6) %src_mac, ptr noundef nonnull dereferenceable(6) @zero_mac, i64 6)
  %tobool4.not.i = icmp eq i32 %bcmp.i, 0
  br i1 %tobool4.not.i, label %land.lhs.true8.i, label %if.then5.i

if.then5.i:                                       ; preds = %if.end
  %h_source.i = getelementptr inbounds nuw i8, ptr %fc, i64 26
  call void @llvm.memcpy.p0.p0.i64(ptr noundef nonnull align 2 dereferenceable(6) %h_source.i, ptr noundef nonnull readonly align 1 dereferenceable(6) %src_mac, i64 6, i1 false)
  br label %land.lhs.true8.i

land.lhs.true8.i:                                 ; preds = %if.then5.i, %if.end
  %bcmp19.i = call i32 @bcmp(ptr noundef nonnull readonly dereferenceable(6) %dst_mac, ptr noundef nonnull dereferenceable(6) @zero_mac, i64 6)
  %tobool10.not.i = icmp eq i32 %bcmp19.i, 0
  br i1 %tobool10.not.i, label %if.end14.i, label %if.then11.i

if.then11.i:                                      ; preds = %land.lhs.true8.i
  call void @llvm.memcpy.p0.p0.i64(ptr noundef nonnull align 4 dereferenceable(6) %ethhdr_rewrite.i, ptr noundef nonnull readonly align 1 dereferenceable(6) %dst_mac, i64 6, i1 false)
  br label %if.end14.i

if.end14.i:                                       ; preds = %if.then11.i, %land.lhs.true8.i
  %iov.i = getelementptr inbounds nuw i8, ptr %fc, i64 8
  %6 = load ptr, ptr %iov.i, align 8
  store ptr %ethhdr_rewrite.i, ptr %6, align 8
  %tobool17.not.i = icmp eq i16 %4, 0
  br i1 %tobool17.not.i, label %of_dpa_flow_pkt_hdr_rewrite.exit, label %land.lhs.true18.i

land.lhs.true18.i:                                ; preds = %if.end14.i
  %vlanhdr.i = getelementptr inbounds nuw i8, ptr %fc, i64 80
  %7 = load ptr, ptr %vlanhdr.i, align 8
  %tobool19.not.i = icmp eq ptr %7, null
  br i1 %tobool19.not.i, label %of_dpa_flow_pkt_hdr_rewrite.exit, label %if.then20.i

if.then20.i:                                      ; preds = %land.lhs.true18.i
  %vlanhdr_rewrite.i = getelementptr inbounds nuw i8, ptr %fc, i64 34
  %vlanhdr21.i = getelementptr inbounds nuw i8, ptr %fc, i64 38
  %8 = load i32, ptr %vlanhdr21.i, align 2
  store i32 %8, ptr %vlanhdr_rewrite.i, align 2
  store i16 %4, ptr %vlanhdr_rewrite.i, align 2
  %9 = load ptr, ptr %iov.i, align 8
  %arrayidx25.i = getelementptr i8, ptr %9, i64 16
  store ptr %vlanhdr_rewrite.i, ptr %arrayidx25.i, align 8
  br label %of_dpa_flow_pkt_hdr_rewrite.exit

of_dpa_flow_pkt_hdr_rewrite.exit:                 ; preds = %if.end14.i, %land.lhs.true18.i, %if.then20.i
  call fastcc void @of_dpa_output_l2_interface(ptr noundef nonnull %fc, ptr noundef %call.i)
  br label %return

return:                                           ; preds = %entry, %of_dpa_flow_pkt_hdr_rewrite.exit
  ret void
}